; Function Attrs: mustprogress nofree norecurse nosync nounwind willreturn memory(argmem: readwrite) uwtable
define internal void @_get_tspan_bounds(ptr nocapture noundef readonly %0, ptr nocapture noundef writeonly %1) #5 {
  %3 = getelementptr inbounds nuw i8, ptr %0, i64 632
  %4 = load i32, ptr %3, align 4, !tbaa !157
  store i32 %4, ptr %1, align 4, !tbaa !157
  %5 = getelementptr inbounds nuw i8, ptr %0, i64 636
  %6 = load i32, ptr %5, align 4, !tbaa !158
  %7 = getelementptr inbounds nuw i8, ptr %1, i64 4
  store i32 %6, ptr %7, align 4, !tbaa !158
  %8 = getelementptr inbounds nuw i8, ptr %0, i64 640
  %9 = load i32, ptr %8, align 4, !tbaa !160
  %10 = getelementptr inbounds nuw i8, ptr %1, i64 8
  store i32 %9, ptr %10, align 4, !tbaa !160
  %11 = getelementptr inbounds nuw i8, ptr %0, i64 644
  %12 = load i32, ptr %11, align 4, !tbaa !162
  %13 = getelementptr inbounds nuw i8, ptr %1, i64 12
  store i32 %12, ptr %13, align 4, !tbaa !162
  ret void
}